; Function Attrs: nounwind uwtable
define void @_ZThn8_N5arrow2io16HdfsReadableFileD0Ev(ptr noundef %this) unnamed_addr #7 align 2 {
entry:
  %0 = getelementptr inbounds i8, ptr %this, i64 -8
  tail call void @_ZN5arrow2io16HdfsReadableFileD2Ev(ptr noundef nonnull align 8 dereferenceable(32) %0, ptr noundef nonnull @_ZTTN5arrow2io16HdfsReadableFileE) #21
  %1 = getelementptr inbounds i8, ptr %this, i64 24
  tail call void @_ZN5arrow2io13FileInterfaceD2Ev(ptr noundef nonnull align 8 dereferenceable(28) %1) #21
  tail call void @_ZdlPv(ptr noundef nonnull %0) #22
  ret void
}